; Function Attrs: mustprogress nofree norecurse nosync nounwind willreturn memory(argmem: readwrite) uwtable
define hidden void @_ZN17opencv_tensorflow9AttrValue12InternalSwapEPS0_(ptr noundef nonnull align 8 captures(none) dereferenceable(32) %0, ptr noundef captures(none) %1) local_unnamed_addr #13 align 2 {
  %3 = getelementptr inbounds nuw i8, ptr %0, i64 8
  %4 = getelementptr inbounds nuw i8, ptr %1, i64 8
  %5 = load i64, ptr %3, align 8, !tbaa !74
  %6 = load i64, ptr %4, align 8, !tbaa !74
  store i64 %6, ptr %3, align 8, !tbaa !74
  store i64 %5, ptr %4, align 8, !tbaa !74
  %7 = getelementptr inbounds nuw i8, ptr %0, i64 16
  %8 = getelementptr inbounds nuw i8, ptr %1, i64 16
  %.sroa.0.0.copyload.i = load ptr, ptr %7, align 8, !tbaa !49
  %9 = load i64, ptr %8, align 8, !tbaa !49
  store i64 %9, ptr %7, align 8, !tbaa !49
  store ptr %.sroa.0.0.copyload.i, ptr %8, align 8, !tbaa !49
  %10 = getelementptr inbounds nuw i8, ptr %0, i64 28
  %11 = getelementptr inbounds nuw i8, ptr %1, i64 28
  %12 = load i32, ptr %10, align 4, !tbaa !79
  %13 = load i32, ptr %11, align 4, !tbaa !79
  store i32 %13, ptr %10, align 4, !tbaa !79
  store i32 %12, ptr %11, align 4, !tbaa !79
  ret void
}